target datalayout = "e-m:e-p270:32:32-p271:32:32-p272:64:64-i64:64-i128:128-f80:128-n8:16:32:64-S128"
target triple = "x86_64-pc-linux-gnu"

%struct.blocklist_t = type { ptr, ptr }
%struct.nodelist_t = type { ptr, i64, i64, i64 }
%struct.block = type { ptr, ptr, ptr, double, double, %struct.nodelist_t, %struct.blocklist_t, double, i32 }
%struct.Agobj_s = type { %struct.Agtag_s, ptr }
%struct.Agtag_s = type { i32, i64 }
%struct.Agnodeinfo_t = type { %struct.Agrec_s, ptr, ptr, %struct.pointf_s, double, double, %struct.boxf, double, double, double, double, double, ptr, ptr, ptr, i8, i8, i8, i8, i32, i32, i32, ptr, double, i8, i8, ptr, ptr, i8, i64, i8, i8, i8, ptr, ptr, %struct.elist, %struct.elist, %struct.elist, %struct.elist, %struct.elist, ptr, i32, ptr, i32, i32, double, %struct.elist, %struct.elist, %struct.elist, %struct.elist, ptr, i32, i32, i32, [1 x double] }
%struct.Agrec_s = type { ptr, ptr }
%struct.pointf_s = type { double, double }
%struct.boxf = type { %struct.pointf_s, %struct.pointf_s }
%struct.elist = type { ptr, i64 }

; Function Attrs: nounwind uwtable
define internal void @applyDelta(ptr noundef %0, double noundef %1, double noundef %2, double noundef %3) #0 {
  %5 = alloca ptr, align 8
  %6 = alloca double, align 8
  %7 = alloca double, align 8
  %8 = alloca double, align 8
  %9 = alloca ptr, align 8
  %10 = alloca ptr, align 8
  %11 = alloca ptr, align 8
  %12 = alloca double, align 8
  %13 = alloca double, align 8
  %14 = alloca double, align 8
  %15 = alloca double, align 8
  %16 = alloca double, align 8
  %17 = alloca double, align 8
  store ptr %0, ptr %5, align 8, !tbaa !8
  store double %1, ptr %6, align 8, !tbaa !18
  store double %2, ptr %7, align 8, !tbaa !18
  store double %3, ptr %8, align 8, !tbaa !18
  call void @llvm.lifetime.start.p0(i64 8, ptr %9) #10
  call void @llvm.lifetime.start.p0(i64 8, ptr %10) #10
  call void @llvm.lifetime.start.p0(i64 8, ptr %11) #10
  %18 = load ptr, ptr %5, align 8, !tbaa !8
  %19 = getelementptr inbounds nuw %struct.block, ptr %18, i32 0, i32 2
  %20 = load ptr, ptr %19, align 8, !tbaa !84
  store ptr %20, ptr %10, align 8, !tbaa !3
  %21 = load ptr, ptr %10, align 8, !tbaa !3
  %22 = call ptr @agfstnode(ptr noundef %21)
  store ptr %22, ptr %11, align 8, !tbaa !62
  br label %23

23:                                               ; preds = %76, %4
  %24 = load ptr, ptr %11, align 8, !tbaa !62
  %25 = icmp ne ptr %24, null
  br i1 %25, label %26, label %80

26:                                               ; preds = %23
  call void @llvm.lifetime.start.p0(i64 8, ptr %12) #10
  %27 = load ptr, ptr %11, align 8, !tbaa !62
  %28 = getelementptr inbounds nuw %struct.Agobj_s, ptr %27, i32 0, i32 1
  %29 = load ptr, ptr %28, align 8, !tbaa !32
  %30 = getelementptr inbounds nuw %struct.Agnodeinfo_t, ptr %29, i32 0, i32 22
  %31 = load ptr, ptr %30, align 8, !tbaa !85
  %32 = getelementptr inbounds double, ptr %31, i64 0
  %33 = load double, ptr %32, align 8, !tbaa !18
  store double %33, ptr %12, align 8, !tbaa !18
  call void @llvm.lifetime.start.p0(i64 8, ptr %13) #10
  %34 = load ptr, ptr %11, align 8, !tbaa !62
  %35 = getelementptr inbounds nuw %struct.Agobj_s, ptr %34, i32 0, i32 1
  %36 = load ptr, ptr %35, align 8, !tbaa !32
  %37 = getelementptr inbounds nuw %struct.Agnodeinfo_t, ptr %36, i32 0, i32 22
  %38 = load ptr, ptr %37, align 8, !tbaa !85
  %39 = getelementptr inbounds double, ptr %38, i64 1
  %40 = load double, ptr %39, align 8, !tbaa !18
  store double %40, ptr %13, align 8, !tbaa !18
  call void @llvm.lifetime.start.p0(i64 8, ptr %14) #10
  %41 = load double, ptr %8, align 8, !tbaa !18
  %42 = call double @cos(double noundef %41) #10, !tbaa !52
  store double %42, ptr %14, align 8, !tbaa !18
  call void @llvm.lifetime.start.p0(i64 8, ptr %15) #10
  %43 = load double, ptr %8, align 8, !tbaa !18
  %44 = call double @sin(double noundef %43) #10, !tbaa !52
  store double %44, ptr %15, align 8, !tbaa !18
  call void @llvm.lifetime.start.p0(i64 8, ptr %16) #10
  %45 = load double, ptr %12, align 8, !tbaa !18
  %46 = load double, ptr %14, align 8, !tbaa !18
  %47 = load double, ptr %13, align 8, !tbaa !18
  %48 = load double, ptr %15, align 8, !tbaa !18
  %49 = fmul double %47, %48
  %50 = fneg double %49
  %51 = call double @llvm.fmuladd.f64(double %45, double %46, double %50)
  store double %51, ptr %16, align 8, !tbaa !18
  call void @llvm.lifetime.start.p0(i64 8, ptr %17) #10
  %52 = load double, ptr %12, align 8, !tbaa !18
  %53 = load double, ptr %15, align 8, !tbaa !18
  %54 = load double, ptr %13, align 8, !tbaa !18
  %55 = load double, ptr %14, align 8, !tbaa !18
  %56 = fmul double %54, %55
  %57 = call double @llvm.fmuladd.f64(double %52, double %53, double %56)
  store double %57, ptr %17, align 8, !tbaa !18
  %58 = load double, ptr %16, align 8, !tbaa !18
  %59 = load double, ptr %6, align 8, !tbaa !18
  %60 = fadd double %58, %59
  %61 = load ptr, ptr %11, align 8, !tbaa !62
  %62 = getelementptr inbounds nuw %struct.Agobj_s, ptr %61, i32 0, i32 1
  %63 = load ptr, ptr %62, align 8, !tbaa !32
  %64 = getelementptr inbounds nuw %struct.Agnodeinfo_t, ptr %63, i32 0, i32 22
  %65 = load ptr, ptr %64, align 8, !tbaa !85
  %66 = getelementptr inbounds double, ptr %65, i64 0
  store double %60, ptr %66, align 8, !tbaa !18
  %67 = load double, ptr %17, align 8, !tbaa !18
  %68 = load double, ptr %7, align 8, !tbaa !18
  %69 = fadd double %67, %68
  %70 = load ptr, ptr %11, align 8, !tbaa !62
  %71 = getelementptr inbounds nuw %struct.Agobj_s, ptr %70, i32 0, i32 1
  %72 = load ptr, ptr %71, align 8, !tbaa !32
  %73 = getelementptr inbounds nuw %struct.Agnodeinfo_t, ptr %72, i32 0, i32 22
  %74 = load ptr, ptr %73, align 8, !tbaa !85
  %75 = getelementptr inbounds double, ptr %74, i64 1
  store double %69, ptr %75, align 8, !tbaa !18
  call void @llvm.lifetime.end.p0(i64 8, ptr %17) #10
  call void @llvm.lifetime.end.p0(i64 8, ptr %16) #10
  call void @llvm.lifetime.end.p0(i64 8, ptr %15) #10
  call void @llvm.lifetime.end.p0(i64 8, ptr %14) #10
  call void @llvm.lifetime.end.p0(i64 8, ptr %13) #10
  call void @llvm.lifetime.end.p0(i64 8, ptr %12) #10
  br label %76

76:                                               ; preds = %26
  %77 = load ptr, ptr %10, align 8, !tbaa !3
  %78 = load ptr, ptr %11, align 8, !tbaa !62
  %79 = call ptr @agnxtnode(ptr noundef %77, ptr noundef %78)
  store ptr %79, ptr %11, align 8, !tbaa !62
  br label %23, !llvm.loop !86

80:                                               ; preds = %23
  %81 = load ptr, ptr %5, align 8, !tbaa !8
  %82 = getelementptr inbounds nuw %struct.block, ptr %81, i32 0, i32 6
  %83 = getelementptr inbounds nuw %struct.blocklist_t, ptr %82, i32 0, i32 0
  %84 = load ptr, ptr %83, align 8, !tbaa !21
  store ptr %84, ptr %9, align 8, !tbaa !8
  br label %85

85:                                               ; preds = %93, %80
  %86 = load ptr, ptr %9, align 8, !tbaa !8
  %87 = icmp ne ptr %86, null
  br i1 %87, label %88, label %97

88:                                               ; preds = %85
  %89 = load ptr, ptr %9, align 8, !tbaa !8
  %90 = load double, ptr %6, align 8, !tbaa !18
  %91 = load double, ptr %7, align 8, !tbaa !18
  %92 = load double, ptr %8, align 8, !tbaa !18
  call void @applyDelta(ptr noundef %89, double noundef %90, double noundef %91, double noundef %92)
  br label %93

93:                                               ; preds = %88
  %94 = load ptr, ptr %9, align 8, !tbaa !8
  %95 = getelementptr inbounds nuw %struct.block, ptr %94, i32 0, i32 1
  %96 = load ptr, ptr %95, align 8, !tbaa !26
  store ptr %96, ptr %9, align 8, !tbaa !8
  br label %85, !llvm.loop !87

97:                                               ; preds = %85
  call void @llvm.lifetime.end.p0(i64 8, ptr %11) #10
  call void @llvm.lifetime.end.p0(i64 8, ptr %10) #10
  call void @llvm.lifetime.end.p0(i64 8, ptr %9) #10
  ret void
}