; Function Attrs: nounwind uwtable
define internal fastcc void @applyDelta(ptr noundef readonly captures(none) %0, double noundef %1, double noundef %2, double noundef %3) unnamed_addr #0 {
  %5 = getelementptr inbounds nuw i8, ptr %0, i64 16
  %6 = load ptr, ptr %5, align 8, !tbaa !67
  %7 = tail call ptr @agfstnode(ptr noundef %6) #11
  %.not32 = icmp eq ptr %7, null
  br i1 %.not32, label %._crit_edge, label %.lr.ph

.lr.ph:                                           ; preds = %4, %.lr.ph
  %.03033 = phi ptr [ %24, %.lr.ph ], [ %7, %4 ]
  %8 = getelementptr inbounds nuw i8, ptr %.03033, i64 16
  %9 = load ptr, ptr %8, align 8, !tbaa !36
  %10 = getelementptr inbounds nuw i8, ptr %9, i64 176
  %11 = load ptr, ptr %10, align 8, !tbaa !69
  %12 = load double, ptr %11, align 8, !tbaa !70
  %13 = getelementptr inbounds nuw i8, ptr %11, i64 8
  %14 = load double, ptr %13, align 8, !tbaa !70
  %15 = tail call double @cos(double noundef %3) #11, !tbaa !66
  %16 = tail call double @sin(double noundef %3) #11, !tbaa !66
  %17 = fneg double %16
  %18 = fmul double %14, %17
  %19 = tail call double @llvm.fmuladd.f64(double %12, double %15, double %18)
  %20 = fmul double %14, %15
  %21 = tail call double @llvm.fmuladd.f64(double %12, double %16, double %20)
  %22 = fadd double %1, %19
  store double %22, ptr %11, align 8, !tbaa !70
  %23 = fadd double %2, %21
  store double %23, ptr %13, align 8, !tbaa !70
  %24 = tail call ptr @agnxtnode(ptr noundef %6, ptr noundef nonnull %.03033) #11
  %.not = icmp eq ptr %24, null
  br i1 %.not, label %._crit_edge, label %.lr.ph, !llvm.loop !77

._crit_edge:                                      ; preds = %.lr.ph, %4
  %25 = getelementptr inbounds nuw i8, ptr %0, i64 72
  %.034 = load ptr, ptr %25, align 8, !tbaa !14
  %.not3135 = icmp eq ptr %.034, null
  br i1 %.not3135, label %._crit_edge39, label %.lr.ph38

.lr.ph38:                                         ; preds = %._crit_edge, %.lr.ph38
  %.036 = phi ptr [ %.0, %.lr.ph38 ], [ %.034, %._crit_edge ]
  tail call fastcc void @applyDelta(ptr noundef nonnull %.036, double noundef %1, double noundef %2, double noundef %3)
  %26 = getelementptr inbounds nuw i8, ptr %.036, i64 8
  %.0 = load ptr, ptr %26, align 8, !tbaa !14
  %.not31 = icmp eq ptr %.0, null
  br i1 %.not31, label %._crit_edge39, label %.lr.ph38, !llvm.loop !78

._crit_edge39:                                    ; preds = %.lr.ph38, %._crit_edge
  ret void
}